target datalayout = "e-m:e-p270:32:32-p271:32:32-p272:64:64-i64:64-i128:128-f80:128-n8:16:32:64-S128"
target triple = "x86_64-pc-linux-gnu"

@.str.408 = private unnamed_addr constant [10 x i8] c"USB Video\00", align 1
@.str.409 = private unnamed_addr constant [9 x i8] c"USBVIDEO\00", align 1
@.str.410 = private unnamed_addr constant [9 x i8] c"usbvideo\00", align 1
@proto_usb_vid = internal global i32 0, align 4
@.str.411 = private unnamed_addr constant [17 x i8] c"usbvideo.control\00", align 1
@usb_vid_control_handle = internal global ptr null, align 8
@.str.412 = private unnamed_addr constant [20 x i8] c"usbvideo.descriptor\00", align 1
@usb_vid_descriptor_handle = internal global ptr null, align 8
@.str.413 = private unnamed_addr constant [19 x i8] c"usbvideo.interrupt\00", align 1
@usb_vid_interrupt_handle = internal global ptr null, align 8

; Function Attrs: null_pointer_is_valid sspstrong uwtable
define hidden void @proto_register_usb_vid() #0 {
  %1 = alloca ptr, align 8
  call void @llvm.lifetime.start.p0(i64 8, ptr %1) #6
  %2 = call i32 @proto_register_protocol(ptr noundef @.str.408, ptr noundef @.str.409, ptr noundef @.str.410)
  store i32 %2, ptr @proto_usb_vid, align 4
  %3 = load i32, ptr @proto_usb_vid, align 4
  call void @proto_register_field_array(i32 noundef %3, ptr noundef @proto_register_usb_vid.hf, i32 noundef 173)
  call void @proto_register_subtree_array(ptr noundef @proto_register_usb_vid.usb_vid_ett, i32 noundef 16)
  %4 = load i32, ptr @proto_usb_vid, align 4
  %5 = call ptr @expert_register_protocol(i32 noundef %4)
  store ptr %5, ptr %1, align 8
  %6 = load ptr, ptr %1, align 8
  call void @expert_register_field_array(ptr noundef %6, ptr noundef @proto_register_usb_vid.ei, i32 noundef 2)
  %7 = load i32, ptr @proto_usb_vid, align 4
  %8 = call ptr @register_dissector(ptr noundef @.str.411, ptr noundef @dissect_usb_vid_control, i32 noundef %7)
  store ptr %8, ptr @usb_vid_control_handle, align 8
  %9 = load i32, ptr @proto_usb_vid, align 4
  %10 = call ptr @register_dissector(ptr noundef @.str.412, ptr noundef @dissect_usb_vid_descriptor, i32 noundef %9)
  store ptr %10, ptr @usb_vid_descriptor_handle, align 8
  %11 = load i32, ptr @proto_usb_vid, align 4
  %12 = call ptr @register_dissector(ptr noundef @.str.413, ptr noundef @dissect_usb_vid_interrupt, i32 noundef %11)
  store ptr %12, ptr @usb_vid_interrupt_handle, align 8
  call void @llvm.lifetime.end.p0(i64 8, ptr %1) #6
  ret void
}