; Function Attrs: null_pointer_is_valid sspstrong uwtable
define hidden void @proto_register_usb_vid() local_unnamed_addr #0 {
  %1 = tail call i32 @proto_register_protocol(ptr noundef nonnull @.str.408, ptr noundef nonnull @.str.409, ptr noundef nonnull @.str.410)
  store i32 %1, ptr @proto_usb_vid, align 4
  tail call void @proto_register_field_array(i32 noundef %1, ptr noundef nonnull @proto_register_usb_vid.hf, i32 noundef 173)
  tail call void @proto_register_subtree_array(ptr noundef nonnull @proto_register_usb_vid.usb_vid_ett, i32 noundef 16)
  %2 = load i32, ptr @proto_usb_vid, align 4
  %3 = tail call ptr @expert_register_protocol(i32 noundef %2)
  tail call void @expert_register_field_array(ptr noundef %3, ptr noundef nonnull @proto_register_usb_vid.ei, i32 noundef 2)
  %4 = load i32, ptr @proto_usb_vid, align 4
  %5 = tail call ptr @register_dissector(ptr noundef nonnull @.str.411, ptr noundef nonnull @dissect_usb_vid_control, i32 noundef %4)
  store ptr %5, ptr @usb_vid_control_handle, align 8
  %6 = load i32, ptr @proto_usb_vid, align 4
  %7 = tail call ptr @register_dissector(ptr noundef nonnull @.str.412, ptr noundef nonnull @dissect_usb_vid_descriptor, i32 noundef %6)
  store ptr %7, ptr @usb_vid_descriptor_handle, align 8
  %8 = load i32, ptr @proto_usb_vid, align 4
  %9 = tail call ptr @register_dissector(ptr noundef nonnull @.str.413, ptr noundef nonnull @dissect_usb_vid_interrupt, i32 noundef %8)
  store ptr %9, ptr @usb_vid_interrupt_handle, align 8
  ret void
}